; ModuleID = '40/2554.c'
source_filename = "40/2554.c"
target datalayout = "e-m:e-p270:32:32-p271:32:32-p272:64:64-i64:64-f80:128-n8:16:32:64-S128"
target triple = "x86_64-pc-linux-gnu"

@.str = private unnamed_addr constant [17 x i8] c"%lf\0A%lf\0A%lf\0A%lf\0A\00", align 1
@.str.1 = private unnamed_addr constant [4 x i8] c"%lf\00", align 1
@.str.2 = private unnamed_addr constant [14 x i8] c"Invalid input\00", align 1
@.str.3 = private unnamed_addr constant [6 x i8] c"%.4lf\00", align 1

; Function Attrs: noinline nounwind uwtable
define dso_local i32 @main() #0 {
  %1 = alloca i32, align 4
  %2 = alloca double, align 8
  %3 = alloca double, align 8
  %4 = alloca double, align 8
  %5 = alloca double, align 8
  %6 = alloca double, align 8
  %7 = alloca double, align 8
  %8 = alloca double, align 8
  store i32 0, i32* %1, align 4
  %9 = call i32 (i8*, ...) @__isoc99_scanf(i8* getelementptr inbounds ([17 x i8], [17 x i8]* @.str, i64 0, i64 0), double* %2, double* %3, double* %4, double* %5)
  %10 = call i32 (i8*, ...) @__isoc99_scanf(i8* getelementptr inbounds ([4 x i8], [4 x i8]* @.str.1, i64 0, i64 0), double* %8)
  %11 = load double, double* %2, align 8
  %12 = fdiv double %11, 2.000000e+00
  %13 = load double, double* %3, align 8
  %14 = fdiv double %13, 2.000000e+00
  %15 = fadd double %12, %14
  %16 = load double, double* %4, align 8
  %17 = fdiv double %16, 2.000000e+00
  %18 = fadd double %15, %17
  %19 = load double, double* %5, align 8
  %20 = fdiv double %19, 2.000000e+00
  %21 = fadd double %18, %20
  store double %21, double* %6, align 8
  %22 = load double, double* %6, align 8
  %23 = load double, double* %2, align 8
  %24 = fsub double %22, %23
  %25 = load double, double* %6, align 8
  %26 = load double, double* %3, align 8
  %27 = fsub double %25, %26
  %28 = fmul double %24, %27
  %29 = load double, double* %6, align 8
  %30 = load double, double* %4, align 8
  %31 = fsub double %29, %30
  %32 = fmul double %28, %31
  %33 = load double, double* %6, align 8
  %34 = load double, double* %5, align 8
  %35 = fsub double %33, %34
  %36 = fmul double %32, %35
  %37 = load double, double* %2, align 8
  %38 = load double, double* %3, align 8
  %39 = fmul double %37, %38
  %40 = load double, double* %4, align 8
  %41 = fmul double %39, %40
  %42 = load double, double* %5, align 8
  %43 = fmul double %41, %42
  %44 = load double, double* %8, align 8
  %45 = fdiv double %44, 1.800000e+02
  %46 = fmul double %45, 1.000000e+02
  %47 = call double @cos(double %46) #3
  %48 = fadd double %47, 1.000000e+00
  %49 = fdiv double %48, 2.000000e+00
  %50 = fmul double %43, %49
  %51 = fsub double %36, %50
  %52 = call double @sqrt(double %51) #3
  store double %52, double* %7, align 8
  %53 = load double, double* %6, align 8
  %54 = load double, double* %2, align 8
  %55 = fsub double %53, %54
  %56 = load double, double* %6, align 8
  %57 = load double, double* %3, align 8
  %58 = fsub double %56, %57
  %59 = fmul double %55, %58
  %60 = load double, double* %6, align 8
  %61 = load double, double* %4, align 8
  %62 = fsub double %60, %61
  %63 = fmul double %59, %62
  %64 = load double, double* %6, align 8
  %65 = load double, double* %5, align 8
  %66 = fsub double %64, %65
  %67 = fmul double %63, %66
  %68 = load double, double* %2, align 8
  %69 = load double, double* %3, align 8
  %70 = fmul double %68, %69
  %71 = load double, double* %4, align 8
  %72 = fmul double %70, %71
  %73 = load double, double* %5, align 8
  %74 = fmul double %72, %73
  %75 = load double, double* %8, align 8
  %76 = fdiv double %75, 1.800000e+02
  %77 = fmul double %76, 1.000000e+02
  %78 = call double @cos(double %77) #3
  %79 = fadd double %78, 1.000000e+00
  %80 = fdiv double %79, 2.000000e+00
  %81 = fmul double %74, %80
  %82 = fsub double %67, %81
  %83 = fcmp olt double %82, 0.000000e+00
  br i1 %83, label %84, label %86

84:                                               ; preds = %0
  %85 = call i32 (i8*, ...) @printf(i8* getelementptr inbounds ([14 x i8], [14 x i8]* @.str.2, i64 0, i64 0))
  br label %89

86:                                               ; preds = %0
  %87 = load double, double* %7, align 8
  %88 = call i32 (i8*, ...) @printf(i8* getelementptr inbounds ([6 x i8], [6 x i8]* @.str.3, i64 0, i64 0), double %87)
  br label %89

89:                                               ; preds = %86, %84
  ret i32 0
}

declare dso_local i32 @__isoc99_scanf(i8*, ...) #1

; Function Attrs: nounwind
declare dso_local double @sqrt(double) #2

; Function Attrs: nounwind
declare dso_local double @cos(double) #2

declare dso_local i32 @printf(i8*, ...) #1


!llvm.module.flags = !{!0}
!llvm.ident = !{!1}

!0 = !{i32 1, !"wchar_size", i32 4}
!1 = !{!"clang version 10.0.0-4ubuntu1 "}
